target datalayout = "e-m:e-p270:32:32-p271:32:32-p272:64:64-i64:64-i128:128-f80:128-n8:16:32:64-S128"
target triple = "x86_64-pc-linux-gnu"

%struct.GENERAL_NAME_st = type { i32, %union.anon }
%union.anon = type { ptr }
%struct.otherName_st = type { ptr, ptr }

@.str.25 = private unnamed_addr constant [126 x i8] c"generated/home/dtcxzyw/WorkSpace/Projects/compilers/llvm-opt-benchmark/bench/libquic/libquic/boringssl/crypto/x509v3/v3_alt.c\00", align 1
@.str.26 = private unnamed_addr constant [7 x i8] c"value=\00", align 1
@.str.35 = private unnamed_addr constant [9 x i8] c"section=\00", align 1

; Function Attrs: nounwind uwtable
define internal i32 @do_othername(ptr noundef %0, ptr noundef %1, ptr noundef %2) #0 {
  %4 = alloca i32, align 4
  %5 = alloca ptr, align 8
  %6 = alloca ptr, align 8
  %7 = alloca ptr, align 8
  %8 = alloca ptr, align 8
  %9 = alloca ptr, align 8
  %10 = alloca i32, align 4
  %11 = alloca i32, align 4
  store ptr %0, ptr %5, align 8, !tbaa !17
  store ptr %1, ptr %6, align 8, !tbaa !37
  store ptr %2, ptr %7, align 8, !tbaa !21
  call void @llvm.lifetime.start.p0(i64 8, ptr %8) #6
  store ptr null, ptr %8, align 8, !tbaa !37
  call void @llvm.lifetime.start.p0(i64 8, ptr %9) #6
  call void @llvm.lifetime.start.p0(i64 4, ptr %10) #6
  %12 = load ptr, ptr %6, align 8, !tbaa !37
  %13 = call ptr @strchr(ptr noundef %12, i32 noundef 59) #7
  store ptr %13, ptr %9, align 8, !tbaa !37
  %14 = icmp ne ptr %13, null
  br i1 %14, label %16, label %15

15:                                               ; preds = %3
  store i32 0, ptr %4, align 4
  store i32 1, ptr %11, align 4
  br label %77

16:                                               ; preds = %3
  %17 = call ptr @OTHERNAME_new()
  %18 = load ptr, ptr %5, align 8, !tbaa !17
  %19 = getelementptr inbounds nuw %struct.GENERAL_NAME_st, ptr %18, i32 0, i32 1
  store ptr %17, ptr %19, align 8, !tbaa !34
  %20 = icmp ne ptr %17, null
  br i1 %20, label %22, label %21

21:                                               ; preds = %16
  store i32 0, ptr %4, align 4
  store i32 1, ptr %11, align 4
  br label %77

22:                                               ; preds = %16
  %23 = load ptr, ptr %5, align 8, !tbaa !17
  %24 = getelementptr inbounds nuw %struct.GENERAL_NAME_st, ptr %23, i32 0, i32 1
  %25 = load ptr, ptr %24, align 8, !tbaa !34
  %26 = getelementptr inbounds nuw %struct.otherName_st, ptr %25, i32 0, i32 1
  %27 = load ptr, ptr %26, align 8, !tbaa !49
  call void @ASN1_TYPE_free(ptr noundef %27)
  %28 = load ptr, ptr %9, align 8, !tbaa !37
  %29 = getelementptr inbounds i8, ptr %28, i64 1
  %30 = load ptr, ptr %7, align 8, !tbaa !21
  %31 = call ptr @ASN1_generate_v3(ptr noundef %29, ptr noundef %30)
  %32 = load ptr, ptr %5, align 8, !tbaa !17
  %33 = getelementptr inbounds nuw %struct.GENERAL_NAME_st, ptr %32, i32 0, i32 1
  %34 = load ptr, ptr %33, align 8, !tbaa !34
  %35 = getelementptr inbounds nuw %struct.otherName_st, ptr %34, i32 0, i32 1
  store ptr %31, ptr %35, align 8, !tbaa !49
  %36 = icmp ne ptr %31, null
  br i1 %36, label %38, label %37

37:                                               ; preds = %22
  store i32 0, ptr %4, align 4
  store i32 1, ptr %11, align 4
  br label %77

38:                                               ; preds = %22
  %39 = load ptr, ptr %9, align 8, !tbaa !37
  %40 = load ptr, ptr %6, align 8, !tbaa !37
  %41 = ptrtoint ptr %39 to i64
  %42 = ptrtoint ptr %40 to i64
  %43 = sub i64 %41, %42
  %44 = trunc i64 %43 to i32
  store i32 %44, ptr %10, align 4, !tbaa !39
  %45 = load i32, ptr %10, align 4, !tbaa !39
  %46 = add nsw i32 %45, 1
  %47 = sext i32 %46 to i64
  %48 = call noalias ptr @malloc(i64 noundef %47) #8
  store ptr %48, ptr %8, align 8, !tbaa !37
  %49 = load ptr, ptr %8, align 8, !tbaa !37
  %50 = icmp eq ptr %49, null
  br i1 %50, label %51, label %52

51:                                               ; preds = %38
  store i32 0, ptr %4, align 4
  store i32 1, ptr %11, align 4
  br label %77

52:                                               ; preds = %38
  %53 = load ptr, ptr %8, align 8, !tbaa !37
  %54 = load ptr, ptr %6, align 8, !tbaa !37
  %55 = load i32, ptr %10, align 4, !tbaa !39
  %56 = sext i32 %55 to i64
  %57 = call ptr @strncpy(ptr noundef %53, ptr noundef %54, i64 noundef %56) #6
  %58 = load ptr, ptr %8, align 8, !tbaa !37
  %59 = load i32, ptr %10, align 4, !tbaa !39
  %60 = sext i32 %59 to i64
  %61 = getelementptr inbounds i8, ptr %58, i64 %60
  store i8 0, ptr %61, align 1, !tbaa !34
  %62 = load ptr, ptr %8, align 8, !tbaa !37
  %63 = call ptr @OBJ_txt2obj(ptr noundef %62, i32 noundef 0)
  %64 = load ptr, ptr %5, align 8, !tbaa !17
  %65 = getelementptr inbounds nuw %struct.GENERAL_NAME_st, ptr %64, i32 0, i32 1
  %66 = load ptr, ptr %65, align 8, !tbaa !34
  %67 = getelementptr inbounds nuw %struct.otherName_st, ptr %66, i32 0, i32 0
  store ptr %63, ptr %67, align 8, !tbaa !52
  %68 = load ptr, ptr %8, align 8, !tbaa !37
  call void @free(ptr noundef %68) #6
  %69 = load ptr, ptr %5, align 8, !tbaa !17
  %70 = getelementptr inbounds nuw %struct.GENERAL_NAME_st, ptr %69, i32 0, i32 1
  %71 = load ptr, ptr %70, align 8, !tbaa !34
  %72 = getelementptr inbounds nuw %struct.otherName_st, ptr %71, i32 0, i32 0
  %73 = load ptr, ptr %72, align 8, !tbaa !52
  %74 = icmp ne ptr %73, null
  br i1 %74, label %76, label %75

75:                                               ; preds = %52
  store i32 0, ptr %4, align 4
  store i32 1, ptr %11, align 4
  br label %77

76:                                               ; preds = %52
  store i32 1, ptr %4, align 4
  store i32 1, ptr %11, align 4
  br label %77

77:                                               ; preds = %76, %75, %51, %37, %21, %15
  call void @llvm.lifetime.end.p0(i64 4, ptr %10) #6
  call void @llvm.lifetime.end.p0(i64 8, ptr %9) #6
  call void @llvm.lifetime.end.p0(i64 8, ptr %8) #6
  %78 = load i32, ptr %4, align 4
  ret i32 %78
}

; Function Attrs: nounwind uwtable
define internal i32 @do_dirname(ptr noundef %0, ptr noundef %1, ptr noundef %2) #0 {
  %4 = alloca ptr, align 8
  %5 = alloca ptr, align 8
  %6 = alloca ptr, align 8
  %7 = alloca i32, align 4
  %8 = alloca ptr, align 8
  %9 = alloca ptr, align 8
  store ptr %0, ptr %4, align 8, !tbaa !17
  store ptr %1, ptr %5, align 8, !tbaa !37
  store ptr %2, ptr %6, align 8, !tbaa !21
  call void @llvm.lifetime.start.p0(i64 4, ptr %7) #6
  store i32 0, ptr %7, align 4, !tbaa !39
  call void @llvm.lifetime.start.p0(i64 8, ptr %8) #6
  store ptr null, ptr %8, align 8, !tbaa !13
  call void @llvm.lifetime.start.p0(i64 8, ptr %9) #6
  %10 = call ptr @X509_NAME_new()
  store ptr %10, ptr %9, align 8, !tbaa !47
  %11 = load ptr, ptr %9, align 8, !tbaa !47
  %12 = icmp eq ptr %11, null
  br i1 %12, label %13, label %14

13:                                               ; preds = %3
  br label %32

14:                                               ; preds = %3
  %15 = load ptr, ptr %6, align 8, !tbaa !21
  %16 = load ptr, ptr %5, align 8, !tbaa !37
  %17 = call ptr @X509V3_get_section(ptr noundef %15, ptr noundef %16)
  store ptr %17, ptr %8, align 8, !tbaa !13
  %18 = load ptr, ptr %8, align 8, !tbaa !13
  %19 = icmp eq ptr %18, null
  br i1 %19, label %20, label %22

20:                                               ; preds = %14
  call void @ERR_put_error(i32 noundef 20, i32 noundef 0, i32 noundef 153, ptr noundef @.str.25, i32 noundef 599)
  %21 = load ptr, ptr %5, align 8, !tbaa !37
  call void (i32, ...) @ERR_add_error_data(i32 noundef 2, ptr noundef @.str.35, ptr noundef %21)
  br label %32

22:                                               ; preds = %14
  %23 = load ptr, ptr %9, align 8, !tbaa !47
  %24 = load ptr, ptr %8, align 8, !tbaa !13
  %25 = call i32 @X509V3_NAME_from_section(ptr noundef %23, ptr noundef %24, i64 noundef 4097)
  %26 = icmp ne i32 %25, 0
  br i1 %26, label %28, label %27

27:                                               ; preds = %22
  br label %32

28:                                               ; preds = %22
  %29 = load ptr, ptr %9, align 8, !tbaa !47
  %30 = load ptr, ptr %4, align 8, !tbaa !17
  %31 = getelementptr inbounds nuw %struct.GENERAL_NAME_st, ptr %30, i32 0, i32 1
  store ptr %29, ptr %31, align 8, !tbaa !34
  store i32 1, ptr %7, align 4, !tbaa !39
  br label %32

32:                                               ; preds = %28, %27, %20, %13
  %33 = load i32, ptr %7, align 4, !tbaa !39
  %34 = icmp ne i32 %33, 0
  br i1 %34, label %37, label %35

35:                                               ; preds = %32
  %36 = load ptr, ptr %9, align 8, !tbaa !47
  call void @X509_NAME_free(ptr noundef %36)
  br label %37

37:                                               ; preds = %35, %32
  %38 = load ptr, ptr %6, align 8, !tbaa !21
  %39 = load ptr, ptr %8, align 8, !tbaa !13
  call void @X509V3_section_free(ptr noundef %38, ptr noundef %39)
  %40 = load i32, ptr %7, align 4, !tbaa !39
  call void @llvm.lifetime.end.p0(i64 8, ptr %9) #6
  call void @llvm.lifetime.end.p0(i64 8, ptr %8) #6
  call void @llvm.lifetime.end.p0(i64 4, ptr %7) #6
  ret i32 %40
}

; Function Attrs: nounwind uwtable
define hidden ptr @a2i_GENERAL_NAME(ptr noundef %0, ptr noundef %1, ptr noundef %2, i32 noundef %3, ptr noundef %4, i32 noundef %5) #0 {
  %7 = alloca ptr, align 8
  %8 = alloca ptr, align 8
  %9 = alloca ptr, align 8
  %10 = alloca ptr, align 8
  %11 = alloca i32, align 4
  %12 = alloca ptr, align 8
  %13 = alloca i32, align 4
  %14 = alloca i8, align 1
  %15 = alloca ptr, align 8
  %16 = alloca i32, align 4
  %17 = alloca ptr, align 8
  store ptr %0, ptr %8, align 8, !tbaa !17
  store ptr %1, ptr %9, align 8, !tbaa !6
  store ptr %2, ptr %10, align 8, !tbaa !21
  store i32 %3, ptr %11, align 4, !tbaa !39
  store ptr %4, ptr %12, align 8, !tbaa !37
  store i32 %5, ptr %13, align 4, !tbaa !39
  call void @llvm.lifetime.start.p0(i64 1, ptr %14) #6
  store i8 0, ptr %14, align 1, !tbaa !34
  call void @llvm.lifetime.start.p0(i64 8, ptr %15) #6
  store ptr null, ptr %15, align 8, !tbaa !17
  %18 = load ptr, ptr %12, align 8, !tbaa !37
  %19 = icmp ne ptr %18, null
  br i1 %19, label %21, label %20

20:                                               ; preds = %6
  call void @ERR_put_error(i32 noundef 20, i32 noundef 0, i32 noundef 137, ptr noundef @.str.25, i32 noundef 440)
  store ptr null, ptr %7, align 8
  store i32 1, ptr %16, align 4
  br label %117

21:                                               ; preds = %6
  %22 = load ptr, ptr %8, align 8, !tbaa !17
  %23 = icmp ne ptr %22, null
  br i1 %23, label %24, label %26

24:                                               ; preds = %21
  %25 = load ptr, ptr %8, align 8, !tbaa !17
  store ptr %25, ptr %15, align 8, !tbaa !17
  br label %32

26:                                               ; preds = %21
  %27 = call ptr @GENERAL_NAME_new()
  store ptr %27, ptr %15, align 8, !tbaa !17
  %28 = load ptr, ptr %15, align 8, !tbaa !17
  %29 = icmp eq ptr %28, null
  br i1 %29, label %30, label %31

30:                                               ; preds = %26
  call void @ERR_put_error(i32 noundef 20, i32 noundef 0, i32 noundef 65, ptr noundef @.str.25, i32 noundef 449)
  store ptr null, ptr %7, align 8
  store i32 1, ptr %16, align 4
  br label %117

31:                                               ; preds = %26
  br label %32

32:                                               ; preds = %31, %24
  %33 = load i32, ptr %11, align 4, !tbaa !39
  switch i32 %33, label %85 [
    i32 6, label %34
    i32 1, label %34
    i32 2, label %34
    i32 8, label %35
    i32 7, label %48
    i32 4, label %69
    i32 0, label %77
  ]

34:                                               ; preds = %32, %32, %32
  store i8 1, ptr %14, align 1, !tbaa !34
  br label %86

35:                                               ; preds = %32
  call void @llvm.lifetime.start.p0(i64 8, ptr %17) #6
  %36 = load ptr, ptr %12, align 8, !tbaa !37
  %37 = call ptr @OBJ_txt2obj(ptr noundef %36, i32 noundef 0)
  store ptr %37, ptr %17, align 8, !tbaa !45
  %38 = icmp ne ptr %37, null
  br i1 %38, label %41, label %39

39:                                               ; preds = %35
  call void @ERR_put_error(i32 noundef 20, i32 noundef 0, i32 noundef 101, ptr noundef @.str.25, i32 noundef 465)
  %40 = load ptr, ptr %12, align 8, !tbaa !37
  call void (i32, ...) @ERR_add_error_data(i32 noundef 2, ptr noundef @.str.26, ptr noundef %40)
  store i32 3, ptr %16, align 4
  br label %45

41:                                               ; preds = %35
  %42 = load ptr, ptr %17, align 8, !tbaa !45
  %43 = load ptr, ptr %15, align 8, !tbaa !17
  %44 = getelementptr inbounds nuw %struct.GENERAL_NAME_st, ptr %43, i32 0, i32 1
  store ptr %42, ptr %44, align 8, !tbaa !34
  store i32 0, ptr %16, align 4
  br label %45

45:                                               ; preds = %39, %41
  call void @llvm.lifetime.end.p0(i64 8, ptr %17) #6
  %46 = load i32, ptr %16, align 4
  switch i32 %46, label %117 [
    i32 0, label %47
    i32 3, label %111
  ]

47:                                               ; preds = %45
  br label %86

48:                                               ; preds = %32
  %49 = load i32, ptr %13, align 4, !tbaa !39
  %50 = icmp ne i32 %49, 0
  br i1 %50, label %51, label %56

51:                                               ; preds = %48
  %52 = load ptr, ptr %12, align 8, !tbaa !37
  %53 = call ptr @a2i_IPADDRESS_NC(ptr noundef %52)
  %54 = load ptr, ptr %15, align 8, !tbaa !17
  %55 = getelementptr inbounds nuw %struct.GENERAL_NAME_st, ptr %54, i32 0, i32 1
  store ptr %53, ptr %55, align 8, !tbaa !34
  br label %61

56:                                               ; preds = %48
  %57 = load ptr, ptr %12, align 8, !tbaa !37
  %58 = call ptr @a2i_IPADDRESS(ptr noundef %57)
  %59 = load ptr, ptr %15, align 8, !tbaa !17
  %60 = getelementptr inbounds nuw %struct.GENERAL_NAME_st, ptr %59, i32 0, i32 1
  store ptr %58, ptr %60, align 8, !tbaa !34
  br label %61

61:                                               ; preds = %56, %51
  %62 = load ptr, ptr %15, align 8, !tbaa !17
  %63 = getelementptr inbounds nuw %struct.GENERAL_NAME_st, ptr %62, i32 0, i32 1
  %64 = load ptr, ptr %63, align 8, !tbaa !34
  %65 = icmp eq ptr %64, null
  br i1 %65, label %66, label %68

66:                                               ; preds = %61
  call void @ERR_put_error(i32 noundef 20, i32 noundef 0, i32 noundef 100, ptr noundef @.str.25, i32 noundef 479)
  %67 = load ptr, ptr %12, align 8, !tbaa !37
  call void (i32, ...) @ERR_add_error_data(i32 noundef 2, ptr noundef @.str.26, ptr noundef %67)
  br label %111

68:                                               ; preds = %61
  br label %86

69:                                               ; preds = %32
  %70 = load ptr, ptr %15, align 8, !tbaa !17
  %71 = load ptr, ptr %12, align 8, !tbaa !37
  %72 = load ptr, ptr %10, align 8, !tbaa !21
  %73 = call i32 @do_dirname(ptr noundef %70, ptr noundef %71, ptr noundef %72)
  %74 = icmp ne i32 %73, 0
  br i1 %74, label %76, label %75

75:                                               ; preds = %69
  call void @ERR_put_error(i32 noundef 20, i32 noundef 0, i32 noundef 105, ptr noundef @.str.25, i32 noundef 487)
  br label %111

76:                                               ; preds = %69
  br label %86

77:                                               ; preds = %32
  %78 = load ptr, ptr %15, align 8, !tbaa !17
  %79 = load ptr, ptr %12, align 8, !tbaa !37
  %80 = load ptr, ptr %10, align 8, !tbaa !21
  %81 = call i32 @do_othername(ptr noundef %78, ptr noundef %79, ptr noundef %80)
  %82 = icmp ne i32 %81, 0
  br i1 %82, label %84, label %83

83:                                               ; preds = %77
  call void @ERR_put_error(i32 noundef 20, i32 noundef 0, i32 noundef 148, ptr noundef @.str.25, i32 noundef 494)
  br label %111

84:                                               ; preds = %77
  br label %86

85:                                               ; preds = %32
  call void @ERR_put_error(i32 noundef 20, i32 noundef 0, i32 noundef 161, ptr noundef @.str.25, i32 noundef 499)
  br label %111

86:                                               ; preds = %84, %76, %68, %47, %34
  %87 = load i8, ptr %14, align 1, !tbaa !34
  %88 = icmp ne i8 %87, 0
  br i1 %88, label %89, label %106

89:                                               ; preds = %86
  %90 = call ptr @ASN1_STRING_type_new(i32 noundef 22)
  %91 = load ptr, ptr %15, align 8, !tbaa !17
  %92 = getelementptr inbounds nuw %struct.GENERAL_NAME_st, ptr %91, i32 0, i32 1
  store ptr %90, ptr %92, align 8, !tbaa !34
  %93 = icmp ne ptr %90, null
  br i1 %93, label %94, label %104

94:                                               ; preds = %89
  %95 = load ptr, ptr %15, align 8, !tbaa !17
  %96 = getelementptr inbounds nuw %struct.GENERAL_NAME_st, ptr %95, i32 0, i32 1
  %97 = load ptr, ptr %96, align 8, !tbaa !34
  %98 = load ptr, ptr %12, align 8, !tbaa !37
  %99 = load ptr, ptr %12, align 8, !tbaa !37
  %100 = call i64 @strlen(ptr noundef %99) #7
  %101 = trunc i64 %100 to i32
  %102 = call i32 @ASN1_STRING_set(ptr noundef %97, ptr noundef %98, i32 noundef %101)
  %103 = icmp ne i32 %102, 0
  br i1 %103, label %105, label %104

104:                                              ; preds = %94, %89
  call void @ERR_put_error(i32 noundef 20, i32 noundef 0, i32 noundef 65, ptr noundef @.str.25, i32 noundef 507)
  br label %111

105:                                              ; preds = %94
  br label %106

106:                                              ; preds = %105, %86
  %107 = load i32, ptr %11, align 4, !tbaa !39
  %108 = load ptr, ptr %15, align 8, !tbaa !17
  %109 = getelementptr inbounds nuw %struct.GENERAL_NAME_st, ptr %108, i32 0, i32 0
  store i32 %107, ptr %109, align 8, !tbaa !31
  %110 = load ptr, ptr %15, align 8, !tbaa !17
  store ptr %110, ptr %7, align 8
  store i32 1, ptr %16, align 4
  br label %117

111:                                              ; preds = %45, %104, %85, %83, %75, %66
  %112 = load ptr, ptr %8, align 8, !tbaa !17
  %113 = icmp ne ptr %112, null
  br i1 %113, label %116, label %114

114:                                              ; preds = %111
  %115 = load ptr, ptr %15, align 8, !tbaa !17
  call void @GENERAL_NAME_free(ptr noundef %115)
  br label %116

116:                                              ; preds = %114, %111
  store ptr null, ptr %7, align 8
  store i32 1, ptr %16, align 4
  br label %117

117:                                              ; preds = %116, %106, %45, %30, %20
  call void @llvm.lifetime.end.p0(i64 8, ptr %15) #6
  call void @llvm.lifetime.end.p0(i64 1, ptr %14) #6
  %118 = load ptr, ptr %7, align 8
  ret ptr %118
}