; Function Attrs: nounwind uwtable
define hidden ptr @a2i_GENERAL_NAME(ptr noundef %0, ptr readnone captures(none) %1, ptr noundef %2, i32 noundef %3, ptr noundef %4, i32 noundef %5) local_unnamed_addr #0 {
  %.not = icmp eq ptr %4, null
  br i1 %.not, label %7, label %8

7:                                                ; preds = %6
  tail call void @ERR_put_error(i32 noundef 20, i32 noundef 0, i32 noundef 137, ptr noundef nonnull @.str.25, i32 noundef 440) #7
  br label %76

8:                                                ; preds = %6
  %.not41 = icmp eq ptr %0, null
  br i1 %.not41, label %9, label %13

9:                                                ; preds = %8
  %10 = tail call ptr @GENERAL_NAME_new() #7
  %11 = icmp eq ptr %10, null
  br i1 %11, label %12, label %13

12:                                               ; preds = %9
  tail call void @ERR_put_error(i32 noundef 20, i32 noundef 0, i32 noundef 65, ptr noundef nonnull @.str.25, i32 noundef 449) #7
  br label %76

13:                                               ; preds = %8, %9
  %.034 = phi ptr [ %10, %9 ], [ %0, %8 ]
  switch i32 %3, label %65 [
    i32 6, label %66
    i32 1, label %66
    i32 2, label %66
    i32 8, label %14
    i32 7, label %18
    i32 4, label %27
    i32 0, label %38
  ]

14:                                               ; preds = %13
  %15 = tail call ptr @OBJ_txt2obj(ptr noundef nonnull %4, i32 noundef 0) #7
  %.not45 = icmp eq ptr %15, null
  br i1 %.not45, label %17, label %.thread

.thread:                                          ; preds = %14
  %16 = getelementptr inbounds nuw i8, ptr %.034, i64 8
  store ptr %15, ptr %16, align 8, !tbaa !30
  br label %.critedge

17:                                               ; preds = %14
  tail call void @ERR_put_error(i32 noundef 20, i32 noundef 0, i32 noundef 101, ptr noundef nonnull @.str.25, i32 noundef 465) #7
  tail call void (i32, ...) @ERR_add_error_data(i32 noundef 2, ptr noundef nonnull @.str.26, ptr noundef nonnull %4) #7
  br label %74

18:                                               ; preds = %13
  %.not44 = icmp eq i32 %5, 0
  br i1 %.not44, label %21, label %19

19:                                               ; preds = %18
  %20 = tail call ptr @a2i_IPADDRESS_NC(ptr noundef nonnull %4) #7
  br label %23

21:                                               ; preds = %18
  %22 = tail call ptr @a2i_IPADDRESS(ptr noundef nonnull %4) #7
  br label %23

23:                                               ; preds = %21, %19
  %.sink = phi ptr [ %22, %21 ], [ %20, %19 ]
  %24 = getelementptr inbounds nuw i8, ptr %.034, i64 8
  store ptr %.sink, ptr %24, align 8, !tbaa !30
  %25 = icmp eq ptr %.sink, null
  br i1 %25, label %26, label %.critedge

26:                                               ; preds = %23
  tail call void @ERR_put_error(i32 noundef 20, i32 noundef 0, i32 noundef 100, ptr noundef nonnull @.str.25, i32 noundef 479) #7
  tail call void (i32, ...) @ERR_add_error_data(i32 noundef 2, ptr noundef nonnull @.str.26, ptr noundef nonnull %4) #7
  br label %74

27:                                               ; preds = %13
  %28 = tail call ptr @X509_NAME_new() #7
  %29 = icmp eq ptr %28, null
  br i1 %29, label %37, label %30

30:                                               ; preds = %27
  %31 = tail call ptr @X509V3_get_section(ptr noundef %2, ptr noundef nonnull %4) #7
  %32 = icmp eq ptr %31, null
  br i1 %32, label %33, label %34

33:                                               ; preds = %30
  tail call void @ERR_put_error(i32 noundef 20, i32 noundef 0, i32 noundef 153, ptr noundef nonnull @.str.25, i32 noundef 599) #7
  tail call void (i32, ...) @ERR_add_error_data(i32 noundef 2, ptr noundef nonnull @.str.35, ptr noundef nonnull %4) #7
  br label %37

34:                                               ; preds = %30
  %35 = tail call i32 @X509V3_NAME_from_section(ptr noundef nonnull %28, ptr noundef nonnull %31, i64 noundef 4097) #7
  %.not.i = icmp eq i32 %35, 0
  br i1 %.not.i, label %37, label %do_dirname.exit

do_dirname.exit:                                  ; preds = %34
  %36 = getelementptr inbounds nuw i8, ptr %.034, i64 8
  store ptr %28, ptr %36, align 8, !tbaa !30
  tail call void @X509V3_section_free(ptr noundef %2, ptr noundef nonnull %31) #7
  br label %.critedge

37:                                               ; preds = %27, %33, %34
  %.013.ph.i = phi ptr [ %31, %34 ], [ null, %33 ], [ null, %27 ]
  tail call void @X509_NAME_free(ptr noundef %28) #7
  tail call void @X509V3_section_free(ptr noundef %2, ptr noundef %.013.ph.i) #7
  tail call void @ERR_put_error(i32 noundef 20, i32 noundef 0, i32 noundef 105, ptr noundef nonnull @.str.25, i32 noundef 487) #7
  br label %74

38:                                               ; preds = %13
  %39 = tail call ptr @strchr(ptr noundef nonnull dereferenceable(1) %4, i32 noundef 59) #8
  %.not.i49 = icmp eq ptr %39, null
  br i1 %.not.i49, label %do_othername.exit.thread, label %40

40:                                               ; preds = %38
  %41 = tail call ptr @OTHERNAME_new() #7
  %42 = getelementptr inbounds nuw i8, ptr %.034, i64 8
  store ptr %41, ptr %42, align 8, !tbaa !30
  %.not22.i = icmp eq ptr %41, null
  br i1 %.not22.i, label %do_othername.exit.thread, label %43

43:                                               ; preds = %40
  %44 = getelementptr inbounds nuw i8, ptr %41, i64 8
  %45 = load ptr, ptr %44, align 8, !tbaa !37
  tail call void @ASN1_TYPE_free(ptr noundef %45) #7
  %46 = getelementptr inbounds nuw i8, ptr %39, i64 1
  %47 = tail call ptr @ASN1_generate_v3(ptr noundef nonnull %46, ptr noundef %2) #7
  %48 = load ptr, ptr %42, align 8, !tbaa !30
  %49 = getelementptr inbounds nuw i8, ptr %48, i64 8
  store ptr %47, ptr %49, align 8, !tbaa !37
  %.not23.i = icmp eq ptr %47, null
  br i1 %.not23.i, label %do_othername.exit.thread, label %50

50:                                               ; preds = %43
  %51 = ptrtoint ptr %39 to i64
  %52 = ptrtoint ptr %4 to i64
  %53 = sub i64 %51, %52
  %54 = shl i64 %53, 32
  %sext.i = add i64 %54, 4294967296
  %55 = ashr exact i64 %sext.i, 32
  %56 = tail call noalias ptr @malloc(i64 noundef %55) #9
  %57 = icmp eq ptr %56, null
  br i1 %57, label %do_othername.exit.thread, label %do_othername.exit

do_othername.exit:                                ; preds = %50
  %58 = ashr exact i64 %54, 32
  %59 = tail call ptr @strncpy(ptr noundef nonnull %56, ptr noundef nonnull %4, i64 noundef %58) #7
  %60 = getelementptr inbounds i8, ptr %56, i64 %58
  store i8 0, ptr %60, align 1, !tbaa !30
  %61 = tail call ptr @OBJ_txt2obj(ptr noundef nonnull %56, i32 noundef 0) #7
  %62 = load ptr, ptr %42, align 8, !tbaa !30
  store ptr %61, ptr %62, align 8, !tbaa !41
  tail call void @free(ptr noundef nonnull %56) #7
  %63 = load ptr, ptr %42, align 8, !tbaa !30
  %64 = load ptr, ptr %63, align 8, !tbaa !41
  %.not25.i.not = icmp eq ptr %64, null
  br i1 %.not25.i.not, label %do_othername.exit.thread, label %.critedge

do_othername.exit.thread:                         ; preds = %50, %43, %40, %38, %do_othername.exit
  tail call void @ERR_put_error(i32 noundef 20, i32 noundef 0, i32 noundef 148, ptr noundef nonnull @.str.25, i32 noundef 494) #7
  br label %74

65:                                               ; preds = %13
  tail call void @ERR_put_error(i32 noundef 20, i32 noundef 0, i32 noundef 161, ptr noundef nonnull @.str.25, i32 noundef 499) #7
  br label %74

66:                                               ; preds = %13, %13, %13
  %67 = tail call ptr @ASN1_STRING_type_new(i32 noundef 22) #7
  %68 = getelementptr inbounds nuw i8, ptr %.034, i64 8
  store ptr %67, ptr %68, align 8, !tbaa !30
  %.not47 = icmp eq ptr %67, null
  br i1 %.not47, label %73, label %69

69:                                               ; preds = %66
  %70 = tail call i64 @strlen(ptr noundef nonnull dereferenceable(1) %4) #8
  %71 = trunc i64 %70 to i32
  %72 = tail call i32 @ASN1_STRING_set(ptr noundef nonnull %67, ptr noundef nonnull %4, i32 noundef %71) #7
  %.not48 = icmp eq i32 %72, 0
  br i1 %.not48, label %73, label %.critedge

73:                                               ; preds = %69, %66
  tail call void @ERR_put_error(i32 noundef 20, i32 noundef 0, i32 noundef 65, ptr noundef nonnull @.str.25, i32 noundef 507) #7
  br label %74

.critedge:                                        ; preds = %do_dirname.exit, %.thread, %do_othername.exit, %23, %69
  store i32 %3, ptr %.034, align 8, !tbaa !28
  br label %76

74:                                               ; preds = %17, %73, %65, %do_othername.exit.thread, %37, %26
  br i1 %.not41, label %75, label %76

75:                                               ; preds = %74
  tail call void @GENERAL_NAME_free(ptr noundef nonnull %.034) #7
  br label %76

76:                                               ; preds = %74, %75, %.critedge, %12, %7
  %.0 = phi ptr [ %.034, %.critedge ], [ null, %12 ], [ null, %7 ], [ null, %75 ], [ null, %74 ]
  ret ptr %.0
}